target datalayout = "e-m:e-p270:32:32-p271:32:32-p272:64:64-i64:64-i128:128-f80:128-n8:16:32:64-S128"
target triple = "x86_64-pc-linux-gnu"

%struct.qlog_st = type { %struct.qlog_trace_info_st, ptr, [1 x i64], i32, ptr, ptr, ptr, %struct.OSSL_TIME, %struct.OSSL_TIME, %struct.ossl_json_enc_st, i32, i32 }
%struct.qlog_trace_info_st = type { %struct.quic_conn_id_st, ptr, ptr, ptr, i32, ptr, ptr, i64, ptr }
%struct.quic_conn_id_st = type { i8, [20 x i8] }
%struct.OSSL_TIME = type { i64 }
%struct.ossl_json_enc_st = type { i32, i8, i8, i8, ptr, i8, [16 x i8], %struct.json_write_buf, i64, i64 }
%struct.json_write_buf = type { ptr, ptr, i64, i64 }

; Function Attrs: inlinehint nounwind uwtable
define internal void @bit_set(ptr noundef %0, i32 noundef %1, i32 noundef %2) #5 {
  %4 = alloca ptr, align 8
  %5 = alloca i32, align 4
  %6 = alloca i32, align 4
  %7 = alloca i64, align 8
  store ptr %0, ptr %4, align 8, !tbaa !50
  store i32 %1, ptr %5, align 4, !tbaa !45
  store i32 %2, ptr %6, align 4, !tbaa !45
  call void @llvm.lifetime.start.p0(i64 8, ptr %7) #9
  %8 = load i32, ptr %5, align 4, !tbaa !45
  %9 = zext i32 %8 to i64
  %10 = urem i64 %9, 64
  %11 = shl i64 1, %10
  store i64 %11, ptr %7, align 8, !tbaa !40
  %12 = load i32, ptr %6, align 4, !tbaa !45
  %13 = icmp ne i32 %12, 0
  br i1 %13, label %14, label %23

14:                                               ; preds = %3
  %15 = load i64, ptr %7, align 8, !tbaa !40
  %16 = load ptr, ptr %4, align 8, !tbaa !50
  %17 = load i32, ptr %5, align 4, !tbaa !45
  %18 = zext i32 %17 to i64
  %19 = udiv i64 %18, 64
  %20 = getelementptr inbounds nuw i64, ptr %16, i64 %19
  %21 = load i64, ptr %20, align 8, !tbaa !40
  %22 = or i64 %21, %15
  store i64 %22, ptr %20, align 8, !tbaa !40
  br label %33

23:                                               ; preds = %3
  %24 = load i64, ptr %7, align 8, !tbaa !40
  %25 = xor i64 %24, -1
  %26 = load ptr, ptr %4, align 8, !tbaa !50
  %27 = load i32, ptr %5, align 4, !tbaa !45
  %28 = zext i32 %27 to i64
  %29 = udiv i64 %28, 64
  %30 = getelementptr inbounds nuw i64, ptr %26, i64 %29
  %31 = load i64, ptr %30, align 8, !tbaa !40
  %32 = and i64 %31, %25
  store i64 %32, ptr %30, align 8, !tbaa !40
  br label %33

33:                                               ; preds = %23, %14
  call void @llvm.lifetime.end.p0(i64 8, ptr %7) #9
  ret void
}

; Function Attrs: nounwind uwtable
define i32 @ossl_qlog_set_event_type_enabled(ptr noundef %0, i32 noundef %1, i32 noundef %2) #0 {
  %4 = alloca i32, align 4
  %5 = alloca ptr, align 8
  %6 = alloca i32, align 4
  %7 = alloca i32, align 4
  store ptr %0, ptr %5, align 8, !tbaa !8
  store i32 %1, ptr %6, align 4, !tbaa !45
  store i32 %2, ptr %7, align 4, !tbaa !45
  %8 = load ptr, ptr %5, align 8, !tbaa !8
  %9 = icmp eq ptr %8, null
  br i1 %9, label %13, label %10

10:                                               ; preds = %3
  %11 = load i32, ptr %6, align 4, !tbaa !45
  %12 = icmp uge i32 %11, 8
  br i1 %12, label %13, label %14

13:                                               ; preds = %10, %3
  store i32 0, ptr %4, align 4
  br label %20

14:                                               ; preds = %10
  %15 = load ptr, ptr %5, align 8, !tbaa !8
  %16 = getelementptr inbounds nuw %struct.qlog_st, ptr %15, i32 0, i32 2
  %17 = getelementptr inbounds [1 x i64], ptr %16, i64 0, i64 0
  %18 = load i32, ptr %6, align 4, !tbaa !45
  %19 = load i32, ptr %7, align 4, !tbaa !45
  call void @bit_set(ptr noundef %17, i32 noundef %18, i32 noundef %19)
  store i32 1, ptr %4, align 4
  br label %20

20:                                               ; preds = %14, %13
  %21 = load i32, ptr %4, align 4
  ret i32 %21
}