; Function Attrs: mustprogress nofree norecurse nosync nounwind willreturn memory(argmem: readwrite) uwtable
define range(i32 0, 2) i32 @ossl_qlog_set_event_type_enabled(ptr noundef captures(address_is_null) %0, i32 noundef %1, i32 noundef %2) local_unnamed_addr #5 {
  %4 = icmp eq ptr %0, null
  %5 = icmp ugt i32 %1, 7
  %or.cond = or i1 %4, %5
  br i1 %or.cond, label %17, label %6

6:                                                ; preds = %3
  %7 = getelementptr inbounds nuw i8, ptr %0, i64 96
  %8 = zext nneg i32 %1 to i64
  %9 = shl nuw nsw i64 1, %8
  %.not.i = icmp eq i32 %2, 0
  br i1 %.not.i, label %13, label %10

10:                                               ; preds = %6
  %11 = load i64, ptr %7, align 8, !tbaa !43
  %12 = or i64 %11, %9
  br label %bit_set.exit

13:                                               ; preds = %6
  %14 = xor i64 %9, -1
  %15 = load i64, ptr %7, align 8, !tbaa !43
  %16 = and i64 %15, %14
  br label %bit_set.exit

bit_set.exit:                                     ; preds = %10, %13
  %storemerge.i = phi i64 [ %12, %10 ], [ %16, %13 ]
  store i64 %storemerge.i, ptr %7, align 8, !tbaa !43
  br label %17

17:                                               ; preds = %3, %bit_set.exit
  %.0 = phi i32 [ 1, %bit_set.exit ], [ 0, %3 ]
  ret i32 %.0
}